target datalayout = "e-m:e-p270:32:32-p271:32:32-p272:64:64-i64:64-i128:128-f80:128-n8:16:32:64-S128"
target triple = "x86_64-unknown-linux-gnu"

%"class.std::__cxx11::basic_string" = type { %"struct.std::__cxx11::basic_string<char>::_Alloc_hider", i64, %union.anon }
%"struct.std::__cxx11::basic_string<char>::_Alloc_hider" = type { ptr }
%union.anon = type { i64, [8 x i8] }
%"class.std::basic_ios" = type { %"class.std::ios_base", ptr, i8, i8, ptr, ptr, ptr, ptr }
%"class.std::ios_base" = type { ptr, i64, i64, i32, i32, i32, ptr, %"struct.std::ios_base::_Words", [8 x %"struct.std::ios_base::_Words"], i32, ptr, %"class.std::locale" }
%"struct.std::ios_base::_Words" = type { ptr, i64 }
%"class.std::locale" = type { ptr }
%"struct.node::PropInfo" = type { %"class.std::__cxx11::basic_string", i32, i64 }
%"class.node::BlobSerializerDeserializer" = type { i8 }
%"class.std::basic_string_view" = type { i64, ptr }
%"class.std::__cxx11::basic_stringstream" = type { %"class.std::basic_iostream.base", %"class.std::__cxx11::basic_stringbuf", %"class.std::basic_ios" }
%"class.std::basic_iostream.base" = type { %"class.std::basic_istream.base", %"class.std::basic_ostream.base" }
%"class.std::basic_istream.base" = type { ptr, i64 }
%"class.std::basic_ostream.base" = type { ptr }
%"class.std::__cxx11::basic_stringbuf" = type { %"class.std::basic_streambuf", i32, %"class.std::__cxx11::basic_string" }
%"class.std::basic_streambuf" = type { ptr, ptr, ptr, ptr, ptr, ptr, ptr, %"class.std::locale" }

@.str.50 = private unnamed_addr constant [22 x i8] c"Write<PropInfo>() %s\0A\00", align 1
@.str.51 = private unnamed_addr constant [34 x i8] c"Write<PropInfo>() wrote %d bytes\0A\00", align 1
@stderr = external global ptr, align 8

; Function Attrs: mustprogress nounwind uwtable
define linkonce_odr dso_local void @_ZNK4node26BlobSerializerDeserializer5DebugIJRmEEEvPKcDpOT_(ptr noundef nonnull align 1 dereferenceable(1) %this, ptr noundef %format, ptr noundef nonnull align 8 dereferenceable(8) %args) #4 comdat align 2 {
entry:
  %this.addr = alloca ptr, align 8
  %format.addr = alloca ptr, align 8
  %args.addr = alloca ptr, align 8
  store ptr %this, ptr %this.addr, align 8
  store ptr %format, ptr %format.addr, align 8
  store ptr %args, ptr %args.addr, align 8
  %this1 = load ptr, ptr %this.addr, align 8
  %is_debug = getelementptr inbounds %"class.node::BlobSerializerDeserializer", ptr %this1, i32 0, i32 0
  %0 = load i8, ptr %is_debug, align 1
  %tobool = trunc i8 %0 to i1
  br i1 %tobool, label %if.then, label %if.end

if.then:                                          ; preds = %entry
  %1 = load ptr, ptr @stderr, align 8
  %2 = load ptr, ptr %format.addr, align 8
  %3 = load ptr, ptr %args.addr, align 8
  call void @_ZN4node7FPrintFIJRmEEEvP8_IO_FILEPKcDpOT_(ptr noundef %1, ptr noundef %2, ptr noundef nonnull align 8 dereferenceable(8) %3) #18
  br label %if.end

if.end:                                           ; preds = %if.then, %entry
  ret void
}

; Function Attrs: mustprogress nounwind uwtable
define linkonce_odr dso_local noundef i64 @_ZN4node14BlobSerializerINS_18SnapshotSerializerEE15WriteArithmeticImEEmRKT_(ptr noundef nonnull align 8 dereferenceable(32) %this, ptr noundef nonnull align 8 dereferenceable(8) %data) #4 comdat align 2 {
entry:
  %this.addr = alloca ptr, align 8
  %data.addr = alloca ptr, align 8
  store ptr %this, ptr %this.addr, align 8
  store ptr %data, ptr %data.addr, align 8
  %this1 = load ptr, ptr %this.addr, align 8
  %0 = load ptr, ptr %data.addr, align 8
  %call = call noundef i64 @_ZN4node14BlobSerializerINS_18SnapshotSerializerEE15WriteArithmeticImEEmPKT_m(ptr noundef nonnull align 8 dereferenceable(32) %this1, ptr noundef %0, i64 noundef 1)
  ret i64 %call
}

; Function Attrs: mustprogress nounwind uwtable
define linkonce_odr dso_local noundef i64 @_ZN4node14BlobSerializerINS_18SnapshotSerializerEE15WriteArithmeticIjEEmRKT_(ptr noundef nonnull align 8 dereferenceable(32) %this, ptr noundef nonnull align 4 dereferenceable(4) %data) #4 comdat align 2 {
entry:
  %this.addr = alloca ptr, align 8
  %data.addr = alloca ptr, align 8
  store ptr %this, ptr %this.addr, align 8
  store ptr %data, ptr %data.addr, align 8
  %this1 = load ptr, ptr %this.addr, align 8
  %0 = load ptr, ptr %data.addr, align 8
  %call = call noundef i64 @_ZN4node14BlobSerializerINS_18SnapshotSerializerEE15WriteArithmeticIjEEmPKT_m(ptr noundef nonnull align 8 dereferenceable(32) %this1, ptr noundef %0, i64 noundef 1)
  ret i64 %call
}

; Function Attrs: mustprogress nounwind uwtable
define linkonce_odr dso_local noundef i64 @_ZN4node14BlobSerializerINS_18SnapshotSerializerEE11WriteStringERKNSt7__cxx1112basic_stringIcSt11char_traitsIcESaIcEEE(ptr noundef nonnull align 8 dereferenceable(32) %this, ptr noundef nonnull align 8 dereferenceable(32) %data) #4 comdat align 2 {
entry:
  %this.addr = alloca ptr, align 8
  %data.addr = alloca ptr, align 8
  %agg.tmp = alloca %"class.std::basic_string_view", align 8
  store ptr %this, ptr %this.addr, align 8
  store ptr %data, ptr %data.addr, align 8
  %this1 = load ptr, ptr %this.addr, align 8
  %0 = load ptr, ptr %data.addr, align 8
  %call = call { i64, ptr } @_ZNKSt7__cxx1112basic_stringIcSt11char_traitsIcESaIcEEcvSt17basic_string_viewIcS2_EEv(ptr noundef nonnull align 8 dereferenceable(32) %0) #3
  %1 = getelementptr inbounds { i64, ptr }, ptr %agg.tmp, i32 0, i32 0
  %2 = extractvalue { i64, ptr } %call, 0
  store i64 %2, ptr %1, align 8
  %3 = getelementptr inbounds { i64, ptr }, ptr %agg.tmp, i32 0, i32 1
  %4 = extractvalue { i64, ptr } %call, 1
  store ptr %4, ptr %3, align 8
  %5 = getelementptr inbounds { i64, ptr }, ptr %agg.tmp, i32 0, i32 0
  %6 = load i64, ptr %5, align 8
  %7 = getelementptr inbounds { i64, ptr }, ptr %agg.tmp, i32 0, i32 1
  %8 = load ptr, ptr %7, align 8
  %call2 = call noundef i64 @_ZN4node14BlobSerializerINS_18SnapshotSerializerEE15WriteStringViewESt17basic_string_viewIcSt11char_traitsIcEENS_13StringLogModeE(ptr noundef nonnull align 8 dereferenceable(32) %this1, i64 %6, ptr %8, i32 noundef 1)
  ret i64 %call2
}

; Function Attrs: mustprogress nounwind uwtable
define linkonce_odr dso_local void @_ZNK4node26BlobSerializerDeserializer5DebugIJPKcEEEvS3_DpOT_(ptr noundef nonnull align 1 dereferenceable(1) %this, ptr noundef %format, ptr noundef nonnull align 8 dereferenceable(8) %args) #4 comdat align 2 {
entry:
  %this.addr = alloca ptr, align 8
  %format.addr = alloca ptr, align 8
  %args.addr = alloca ptr, align 8
  store ptr %this, ptr %this.addr, align 8
  store ptr %format, ptr %format.addr, align 8
  store ptr %args, ptr %args.addr, align 8
  %this1 = load ptr, ptr %this.addr, align 8
  %is_debug = getelementptr inbounds %"class.node::BlobSerializerDeserializer", ptr %this1, i32 0, i32 0
  %0 = load i8, ptr %is_debug, align 1
  %tobool = trunc i8 %0 to i1
  br i1 %tobool, label %if.then, label %if.end

if.then:                                          ; preds = %entry
  %1 = load ptr, ptr @stderr, align 8
  %2 = load ptr, ptr %format.addr, align 8
  %3 = load ptr, ptr %args.addr, align 8
  call void @_ZN4node7FPrintFIJPKcEEEvP8_IO_FILES2_DpOT_(ptr noundef %1, ptr noundef %2, ptr noundef nonnull align 8 dereferenceable(8) %3) #18
  br label %if.end

if.end:                                           ; preds = %if.then, %entry
  ret void
}

; Function Attrs: mustprogress nounwind uwtable
define linkonce_odr dso_local void @_ZNK4node26BlobSerializerDeserializer5ToStrINS_8PropInfoEEENSt7__cxx1112basic_stringIcSt11char_traitsIcESaIcEEERKT_(ptr noalias sret(%"class.std::__cxx11::basic_string") align 8 %agg.result, ptr noundef nonnull align 1 dereferenceable(1) %this, ptr noundef nonnull align 8 dereferenceable(48) %arg) #4 comdat align 2 {
entry:
  %result.ptr = alloca ptr, align 8
  %this.addr = alloca ptr, align 8
  %arg.addr = alloca ptr, align 8
  %ss = alloca %"class.std::__cxx11::basic_stringstream", align 8
  store ptr %agg.result, ptr %result.ptr, align 8
  store ptr %this, ptr %this.addr, align 8
  store ptr %arg, ptr %arg.addr, align 8
  call void @_ZNSt7__cxx1118basic_stringstreamIcSt11char_traitsIcESaIcEEC1Ev(ptr noundef nonnull align 8 dereferenceable(128) %ss)
  %add.ptr = getelementptr inbounds i8, ptr %ss, i64 16
  %0 = load ptr, ptr %arg.addr, align 8
  %call = call noundef nonnull align 8 dereferenceable(8) ptr @_ZN4nodelsERSoRKNS_8PropInfoE(ptr noundef nonnull align 8 dereferenceable(8) %add.ptr, ptr noundef nonnull align 8 dereferenceable(48) %0)
  call void @_ZNKSt7__cxx1118basic_stringstreamIcSt11char_traitsIcESaIcEE3strEv(ptr sret(%"class.std::__cxx11::basic_string") align 8 %agg.result, ptr noundef nonnull align 8 dereferenceable(128) %ss)
  call void @_ZNSt7__cxx1118basic_stringstreamIcSt11char_traitsIcESaIcEED1Ev(ptr noundef nonnull align 8 dereferenceable(128) %ss) #3
  ret void
}

; Function Attrs: mustprogress nounwind uwtable
define dso_local noundef i64 @_ZN4node18SnapshotSerializer5WriteINS_8PropInfoETnPNSt9enable_ifIXntsr3std7is_sameIT_NSt7__cxx1112basic_stringIcSt11char_traitsIcESaIcEEEEE5valueEvE4typeELPv0ETnPNS3_IXntsr3std13is_arithmeticIS4_EE5valueEvE4typeELSE_0EEEmRKS4_(ptr noundef nonnull align 8 dereferenceable(32) %this, ptr noundef nonnull align 8 dereferenceable(48) %data) #4 align 2 {
entry:
  %this.addr = alloca ptr, align 8
  %data.addr = alloca ptr, align 8
  %str = alloca %"class.std::__cxx11::basic_string", align 8
  %ref.tmp = alloca ptr, align 8
  %written_total = alloca i64, align 8
  store ptr %this, ptr %this.addr, align 8
  store ptr %data, ptr %data.addr, align 8
  %this1 = load ptr, ptr %this.addr, align 8
  %is_debug = getelementptr inbounds %"class.node::BlobSerializerDeserializer", ptr %this1, i32 0, i32 0
  %0 = load i8, ptr %is_debug, align 8
  %tobool = trunc i8 %0 to i1
  br i1 %tobool, label %if.then, label %if.end

if.then:                                          ; preds = %entry
  %1 = load ptr, ptr %data.addr, align 8
  call void @_ZNK4node26BlobSerializerDeserializer5ToStrINS_8PropInfoEEENSt7__cxx1112basic_stringIcSt11char_traitsIcESaIcEEERKT_(ptr sret(%"class.std::__cxx11::basic_string") align 8 %str, ptr noundef nonnull align 1 dereferenceable(1) %this1, ptr noundef nonnull align 8 dereferenceable(48) %1)
  %call = call noundef ptr @_ZNKSt7__cxx1112basic_stringIcSt11char_traitsIcESaIcEE5c_strEv(ptr noundef nonnull align 8 dereferenceable(32) %str) #3
  store ptr %call, ptr %ref.tmp, align 8
  call void @_ZNK4node26BlobSerializerDeserializer5DebugIJPKcEEEvS3_DpOT_(ptr noundef nonnull align 1 dereferenceable(1) %this1, ptr noundef @.str.50, ptr noundef nonnull align 8 dereferenceable(8) %ref.tmp)
  call void @_ZNSt7__cxx1112basic_stringIcSt11char_traitsIcESaIcEED1Ev(ptr noundef nonnull align 8 dereferenceable(32) %str) #3
  br label %if.end

if.end:                                           ; preds = %if.then, %entry
  %2 = load ptr, ptr %data.addr, align 8
  %name = getelementptr inbounds %"struct.node::PropInfo", ptr %2, i32 0, i32 0
  %call2 = call noundef i64 @_ZN4node14BlobSerializerINS_18SnapshotSerializerEE11WriteStringERKNSt7__cxx1112basic_stringIcSt11char_traitsIcESaIcEEE(ptr noundef nonnull align 8 dereferenceable(32) %this1, ptr noundef nonnull align 8 dereferenceable(32) %name)
  store i64 %call2, ptr %written_total, align 8
  %3 = load ptr, ptr %data.addr, align 8
  %id = getelementptr inbounds %"struct.node::PropInfo", ptr %3, i32 0, i32 1
  %call3 = call noundef i64 @_ZN4node14BlobSerializerINS_18SnapshotSerializerEE15WriteArithmeticIjEEmRKT_(ptr noundef nonnull align 8 dereferenceable(32) %this1, ptr noundef nonnull align 4 dereferenceable(4) %id)
  %4 = load i64, ptr %written_total, align 8
  %add = add i64 %4, %call3
  store i64 %add, ptr %written_total, align 8
  %5 = load ptr, ptr %data.addr, align 8
  %index = getelementptr inbounds %"struct.node::PropInfo", ptr %5, i32 0, i32 2
  %call4 = call noundef i64 @_ZN4node14BlobSerializerINS_18SnapshotSerializerEE15WriteArithmeticImEEmRKT_(ptr noundef nonnull align 8 dereferenceable(32) %this1, ptr noundef nonnull align 8 dereferenceable(8) %index)
  %6 = load i64, ptr %written_total, align 8
  %add5 = add i64 %6, %call4
  store i64 %add5, ptr %written_total, align 8
  call void @_ZNK4node26BlobSerializerDeserializer5DebugIJRmEEEvPKcDpOT_(ptr noundef nonnull align 1 dereferenceable(1) %this1, ptr noundef @.str.51, ptr noundef nonnull align 8 dereferenceable(8) %written_total)
  %7 = load i64, ptr %written_total, align 8
  ret i64 %7
}